target datalayout = "e-m:e-p270:32:32-p271:32:32-p272:64:64-i64:64-i128:128-f80:128-n8:16:32:64-S128"
target triple = "x86_64-pc-linux-gnu"

%struct.ssl_connection_st = type { %struct.ssl_st, ptr, i32, ptr, ptr, ptr, i32, ptr, i32, i32, i32, i32, %struct.OSSL_TIME, %struct.OSSL_TIME, %struct.ossl_statem_st, i32, ptr, ptr, i64, i64, i64, %struct.ossl_quic_tls_callbacks_st, ptr, ptr, %struct.anon, ptr, ptr, ptr, i32, ptr, %struct.ssl_dane_st, ptr, ptr, ptr, ptr, i32, [64 x i8], [64 x i8], [64 x i8], [64 x i8], [64 x i8], [64 x i8], [64 x i8], [64 x i8], [64 x i8], [64 x i8], [64 x i8], [64 x i8], ptr, [64 x i8], i64, i32, i64, [32 x i8], ptr, ptr, ptr, i64, ptr, [32 x i8], i64, i32, ptr, ptr, i32, i32, ptr, ptr, ptr, ptr, ptr, i64, ptr, ptr, i64, i32, i32, i32, i64, i32, i32, i64, i64, i64, %struct.anon.1, ptr, i32, ptr, ptr, ptr, i32, ptr, ptr, ptr, i32, i32, i32, i32, ptr, i64, i32, ptr, %struct.srp_ctx_st, ptr, %struct.record_layer_st, ptr, ptr, ptr, ptr, i64, i32, i32, i32, i64, i64, i64, ptr, ptr, ptr, ptr, ptr, i64, ptr, i64, ptr, i64 }
%struct.ssl_st = type { i32, ptr, ptr, ptr, %struct.CRYPTO_REF_COUNT, ptr, %struct.crypto_ex_data_st }
%struct.CRYPTO_REF_COUNT = type { i32 }
%struct.crypto_ex_data_st = type { ptr, ptr }
%struct.OSSL_TIME = type { i64 }
%struct.ossl_statem_st = type { i32, i32, i32, i32, i32, i32, i32, i32, i32, i32, i32, i32, i32, ptr, ptr, ptr, i8 }
%struct.ossl_quic_tls_callbacks_st = type { ptr, ptr, ptr, ptr, ptr, ptr }
%struct.anon = type { i64, [32 x i8], [32 x i8], ptr, ptr, i32, i32, i32, i32, [2 x i8], i32, i32, i32, i32, %struct.anon.0, [64 x i8], i64, [64 x i8], i64, i32, i32, ptr, i64, ptr, i64, i32, i8, i8, i16, ptr, i16 }
%struct.anon.0 = type { [128 x i8], i64, [128 x i8], i64, i64, i32, ptr, ptr, [4 x ptr], [4 x i16], i64, i32, ptr, i64, ptr, i64, ptr, ptr, ptr, i32, i64, ptr, i32, ptr, i64, ptr, i64, ptr, i64, ptr, ptr, ptr, ptr, i64, i64, ptr, ptr, i32, i32, i32, i32 }
%struct.ssl_dane_st = type { ptr, ptr, ptr, ptr, ptr, i32, i32, i32, i64 }
%struct.anon.1 = type { [29 x i8], ptr, ptr, ptr, i32, ptr, i16, i32, %struct.anon.2, i32, i32, i64, ptr, i64, ptr, i64, ptr, i64, ptr, i64, ptr, i64, ptr, ptr, ptr, ptr, ptr, ptr, ptr, i64, ptr, i64, i32, i32, i32, i32, ptr, i64, i32, i8, i32, [4 x i32], i32, i8, i8, i8, i8 }
%struct.anon.2 = type { ptr, ptr, ptr, i64 }
%struct.srp_ctx_st = type { ptr, ptr, ptr, ptr, ptr, ptr, ptr, ptr, ptr, ptr, ptr, ptr, ptr, ptr, i32, i64 }
%struct.record_layer_st = type { ptr, ptr, ptr, ptr, ptr, ptr, ptr, ptr, i64, i32, i64, [4 x i8], i64, i64, i8, ptr, i32, ptr, ptr, ptr, i64, i64, i64, i64, [32 x %struct.tls_record_st] }
%struct.tls_record_st = type { ptr, i32, i8, ptr, ptr, i64, i64, i16, [8 x i8] }
%struct.cert_st = type { ptr, ptr, ptr, i32, i32, ptr, i64, ptr, i64, ptr, i64, ptr, i64, ptr, ptr, ptr, ptr, %struct.custom_ext_methods, ptr, i32, ptr, ptr, %struct.CRYPTO_REF_COUNT }
%struct.custom_ext_methods = type { ptr, i64 }
%struct.ssl_ctx_st = type { ptr, ptr, ptr, ptr, ptr, ptr, ptr, i64, ptr, ptr, i32, %struct.OSSL_TIME, ptr, ptr, ptr, %struct.anon.4, %struct.CRYPTO_REF_COUNT, ptr, ptr, ptr, ptr, ptr, ptr, ptr, ptr, ptr, %struct.crypto_ex_data_st, ptr, ptr, ptr, ptr, ptr, ptr, ptr, i64, i32, i32, i32, i64, ptr, ptr, i32, ptr, ptr, i32, i64, [32 x i8], ptr, ptr, ptr, i32, ptr, ptr, ptr, i64, i64, i64, i64, ptr, ptr, ptr, ptr, ptr, %struct.anon.5, ptr, ptr, ptr, ptr, %struct.srp_ctx_st, %struct.dane_ctx_st, ptr, ptr, ptr, ptr, i32, i32, ptr, ptr, i64, i64, ptr, ptr, ptr, i64, ptr, ptr, i32, ptr, ptr, ptr, [14 x i32], [24 x ptr], [14 x ptr], [14 x i64], i64, ptr, ptr, ptr, i64, i64, ptr, i64, i64, i32, i32, i32, i32, ptr, i64, ptr, i64, i64, ptr, ptr }
%struct.anon.4 = type { i32, i32, i32, i32, i32, i32, i32, i32, i32, i32, i32 }
%struct.anon.5 = type { ptr, ptr, [16 x i8], ptr, ptr, ptr, ptr, ptr, i32, i8, i64, ptr, i64, ptr, i64, ptr, i64, ptr, ptr, i64, ptr, ptr, ptr, i64, ptr, ptr, ptr, ptr, [32 x i8] }
%struct.dane_ctx_st = type { ptr, ptr, i8, i64 }
%struct.cert_pkey_st = type { ptr, ptr, ptr, ptr, i64 }
%struct.PACKET = type { ptr, i64 }

@.str.1 = private unnamed_addr constant [36 x i8] c"../openssl/ssl/statem/statem_srvr.c\00", align 1
@__func__.tls_process_cke_gost18 = private unnamed_addr constant [23 x i8] c"tls_process_cke_gost18\00", align 1

; Function Attrs: inlinehint nounwind uwtable
define internal ptr @PACKET_data(ptr noundef %0) #3 {
  %2 = alloca ptr, align 8
  store ptr %0, ptr %2, align 8, !tbaa !3
  %3 = load ptr, ptr %2, align 8, !tbaa !3
  %4 = getelementptr inbounds nuw %struct.PACKET, ptr %3, i32 0, i32 0
  %5 = load ptr, ptr %4, align 8, !tbaa !256
  ret ptr %5
}

; Function Attrs: inlinehint nounwind uwtable
define internal i64 @PACKET_remaining(ptr noundef %0) #3 {
  %2 = alloca ptr, align 8
  store ptr %0, ptr %2, align 8, !tbaa !3
  %3 = load ptr, ptr %2, align 8, !tbaa !3
  %4 = getelementptr inbounds nuw %struct.PACKET, ptr %3, i32 0, i32 1
  %5 = load i64, ptr %4, align 8, !tbaa !257
  ret i64 %5
}

; Function Attrs: nounwind uwtable
define internal i32 @tls_process_cke_gost18(ptr noundef %0, ptr noundef %1) #0 {
  %3 = alloca i32, align 4
  %4 = alloca ptr, align 8
  %5 = alloca ptr, align 8
  %6 = alloca [32 x i8], align 16
  %7 = alloca ptr, align 8
  %8 = alloca ptr, align 8
  %9 = alloca [32 x i8], align 16
  %10 = alloca ptr, align 8
  %11 = alloca i64, align 8
  %12 = alloca i64, align 8
  %13 = alloca i32, align 4
  %14 = alloca i32, align 4
  %15 = alloca ptr, align 8
  %16 = alloca i32, align 4
  store ptr %0, ptr %4, align 8, !tbaa !11
  store ptr %1, ptr %5, align 8, !tbaa !3
  call void @llvm.lifetime.start.p0(i64 32, ptr %6) #9
  call void @llvm.lifetime.start.p0(i64 8, ptr %7) #9
  store ptr null, ptr %7, align 8, !tbaa !181
  call void @llvm.lifetime.start.p0(i64 8, ptr %8) #9
  store ptr null, ptr %8, align 8, !tbaa !177
  call void @llvm.lifetime.start.p0(i64 32, ptr %9) #9
  call void @llvm.lifetime.start.p0(i64 8, ptr %10) #9
  store ptr null, ptr %10, align 8, !tbaa !168
  call void @llvm.lifetime.start.p0(i64 8, ptr %11) #9
  store i64 32, ptr %11, align 8, !tbaa !9
  call void @llvm.lifetime.start.p0(i64 8, ptr %12) #9
  store i64 0, ptr %12, align 8, !tbaa !9
  call void @llvm.lifetime.start.p0(i64 4, ptr %13) #9
  store i32 0, ptr %13, align 4, !tbaa !13
  call void @llvm.lifetime.start.p0(i64 4, ptr %14) #9
  %17 = load ptr, ptr %4, align 8, !tbaa !11
  %18 = call i32 @ossl_gost18_cke_cipher_nid(ptr noundef %17)
  store i32 %18, ptr %14, align 4, !tbaa !13
  call void @llvm.lifetime.start.p0(i64 8, ptr %15) #9
  %19 = load ptr, ptr %4, align 8, !tbaa !11
  %20 = getelementptr inbounds nuw %struct.ssl_connection_st, ptr %19, i32 0, i32 0
  %21 = getelementptr inbounds nuw %struct.ssl_st, ptr %20, i32 0, i32 1
  %22 = load ptr, ptr %21, align 8, !tbaa !147
  store ptr %22, ptr %15, align 8, !tbaa !148
  %23 = load i32, ptr %14, align 4, !tbaa !13
  %24 = icmp eq i32 %23, 0
  br i1 %24, label %25, label %27

25:                                               ; preds = %2
  call void @ERR_new()
  call void @ERR_set_debug(ptr noundef @.str.1, i32 noundef 3320, ptr noundef @__func__.tls_process_cke_gost18)
  %26 = load ptr, ptr %4, align 8, !tbaa !11
  call void (ptr, i32, i32, ptr, ...) @ossl_statem_fatal(ptr noundef %26, i32 noundef 80, i32 noundef 786691, ptr noundef null)
  store i32 0, ptr %3, align 4
  store i32 1, ptr %16, align 4
  br label %125

27:                                               ; preds = %2
  %28 = load ptr, ptr %4, align 8, !tbaa !11
  %29 = getelementptr inbounds [32 x i8], ptr %6, i64 0, i64 0
  %30 = call i32 @ossl_gost_ukm(ptr noundef %28, ptr noundef %29)
  %31 = icmp sle i32 %30, 0
  br i1 %31, label %32, label %34

32:                                               ; preds = %27
  call void @ERR_new()
  call void @ERR_set_debug(ptr noundef @.str.1, i32 noundef 3325, ptr noundef @__func__.tls_process_cke_gost18)
  %33 = load ptr, ptr %4, align 8, !tbaa !11
  call void (ptr, i32, i32, ptr, ...) @ossl_statem_fatal(ptr noundef %33, i32 noundef 80, i32 noundef 786691, ptr noundef null)
  br label %122

34:                                               ; preds = %27
  %35 = load ptr, ptr %4, align 8, !tbaa !11
  %36 = getelementptr inbounds nuw %struct.ssl_connection_st, ptr %35, i32 0, i32 48
  %37 = load ptr, ptr %36, align 8, !tbaa !126
  %38 = getelementptr inbounds nuw %struct.cert_st, ptr %37, i32 0, i32 5
  %39 = load ptr, ptr %38, align 8, !tbaa !296
  %40 = getelementptr inbounds %struct.cert_pkey_st, ptr %39, i64 6
  %41 = getelementptr inbounds nuw %struct.cert_pkey_st, ptr %40, i32 0, i32 1
  %42 = load ptr, ptr %41, align 8, !tbaa !196
  %43 = icmp ne ptr %42, null
  br i1 %43, label %44, label %53

44:                                               ; preds = %34
  %45 = load ptr, ptr %4, align 8, !tbaa !11
  %46 = getelementptr inbounds nuw %struct.ssl_connection_st, ptr %45, i32 0, i32 48
  %47 = load ptr, ptr %46, align 8, !tbaa !126
  %48 = getelementptr inbounds nuw %struct.cert_st, ptr %47, i32 0, i32 5
  %49 = load ptr, ptr %48, align 8, !tbaa !296
  %50 = getelementptr inbounds %struct.cert_pkey_st, ptr %49, i64 6
  %51 = getelementptr inbounds nuw %struct.cert_pkey_st, ptr %50, i32 0, i32 1
  %52 = load ptr, ptr %51, align 8, !tbaa !196
  br label %62

53:                                               ; preds = %34
  %54 = load ptr, ptr %4, align 8, !tbaa !11
  %55 = getelementptr inbounds nuw %struct.ssl_connection_st, ptr %54, i32 0, i32 48
  %56 = load ptr, ptr %55, align 8, !tbaa !126
  %57 = getelementptr inbounds nuw %struct.cert_st, ptr %56, i32 0, i32 5
  %58 = load ptr, ptr %57, align 8, !tbaa !296
  %59 = getelementptr inbounds %struct.cert_pkey_st, ptr %58, i64 5
  %60 = getelementptr inbounds nuw %struct.cert_pkey_st, ptr %59, i32 0, i32 1
  %61 = load ptr, ptr %60, align 8, !tbaa !196
  br label %62

62:                                               ; preds = %53, %44
  %63 = phi ptr [ %52, %44 ], [ %61, %53 ]
  store ptr %63, ptr %8, align 8, !tbaa !177
  %64 = load ptr, ptr %8, align 8, !tbaa !177
  %65 = icmp eq ptr %64, null
  br i1 %65, label %66, label %68

66:                                               ; preds = %62
  call void @ERR_new()
  call void @ERR_set_debug(ptr noundef @.str.1, i32 noundef 3334, ptr noundef @__func__.tls_process_cke_gost18)
  %67 = load ptr, ptr %4, align 8, !tbaa !11
  call void (ptr, i32, i32, ptr, ...) @ossl_statem_fatal(ptr noundef %67, i32 noundef 80, i32 noundef 236, ptr noundef null)
  br label %122

68:                                               ; preds = %62
  %69 = load ptr, ptr %15, align 8, !tbaa !148
  %70 = getelementptr inbounds nuw %struct.ssl_ctx_st, ptr %69, i32 0, i32 0
  %71 = load ptr, ptr %70, align 8, !tbaa !201
  %72 = load ptr, ptr %8, align 8, !tbaa !177
  %73 = load ptr, ptr %15, align 8, !tbaa !148
  %74 = getelementptr inbounds nuw %struct.ssl_ctx_st, ptr %73, i32 0, i32 89
  %75 = load ptr, ptr %74, align 8, !tbaa !202
  %76 = call ptr @EVP_PKEY_CTX_new_from_pkey(ptr noundef %71, ptr noundef %72, ptr noundef %75)
  store ptr %76, ptr %7, align 8, !tbaa !181
  %77 = load ptr, ptr %7, align 8, !tbaa !181
  %78 = icmp eq ptr %77, null
  br i1 %78, label %79, label %81

79:                                               ; preds = %68
  call void @ERR_new()
  call void @ERR_set_debug(ptr noundef @.str.1, i32 noundef 3340, ptr noundef @__func__.tls_process_cke_gost18)
  %80 = load ptr, ptr %4, align 8, !tbaa !11
  call void (ptr, i32, i32, ptr, ...) @ossl_statem_fatal(ptr noundef %80, i32 noundef 80, i32 noundef 524294, ptr noundef null)
  br label %122

81:                                               ; preds = %68
  %82 = load ptr, ptr %7, align 8, !tbaa !181
  %83 = call i32 @EVP_PKEY_decrypt_init(ptr noundef %82)
  %84 = icmp sle i32 %83, 0
  br i1 %84, label %85, label %87

85:                                               ; preds = %81
  call void @ERR_new()
  call void @ERR_set_debug(ptr noundef @.str.1, i32 noundef 3344, ptr noundef @__func__.tls_process_cke_gost18)
  %86 = load ptr, ptr %4, align 8, !tbaa !11
  call void (ptr, i32, i32, ptr, ...) @ossl_statem_fatal(ptr noundef %86, i32 noundef 80, i32 noundef 786691, ptr noundef null)
  br label %122

87:                                               ; preds = %81
  %88 = load ptr, ptr %7, align 8, !tbaa !181
  %89 = getelementptr inbounds [32 x i8], ptr %6, i64 0, i64 0
  %90 = call i32 @EVP_PKEY_CTX_ctrl(ptr noundef %88, i32 noundef -1, i32 noundef 1024, i32 noundef 8, i32 noundef 32, ptr noundef %89)
  %91 = icmp sle i32 %90, 0
  br i1 %91, label %92, label %94

92:                                               ; preds = %87
  call void @ERR_new()
  call void @ERR_set_debug(ptr noundef @.str.1, i32 noundef 3351, ptr noundef @__func__.tls_process_cke_gost18)
  %93 = load ptr, ptr %4, align 8, !tbaa !11
  call void (ptr, i32, i32, ptr, ...) @ossl_statem_fatal(ptr noundef %93, i32 noundef 80, i32 noundef 274, ptr noundef null)
  br label %122

94:                                               ; preds = %87
  %95 = load ptr, ptr %7, align 8, !tbaa !181
  %96 = load i32, ptr %14, align 4, !tbaa !13
  %97 = call i32 @EVP_PKEY_CTX_ctrl(ptr noundef %95, i32 noundef -1, i32 noundef 1024, i32 noundef 12, i32 noundef %96, ptr noundef null)
  %98 = icmp sle i32 %97, 0
  br i1 %98, label %99, label %101

99:                                               ; preds = %94
  call void @ERR_new()
  call void @ERR_set_debug(ptr noundef @.str.1, i32 noundef 3357, ptr noundef @__func__.tls_process_cke_gost18)
  %100 = load ptr, ptr %4, align 8, !tbaa !11
  call void (ptr, i32, i32, ptr, ...) @ossl_statem_fatal(ptr noundef %100, i32 noundef 80, i32 noundef 274, ptr noundef null)
  br label %122

101:                                              ; preds = %94
  %102 = load ptr, ptr %5, align 8, !tbaa !3
  %103 = call i64 @PACKET_remaining(ptr noundef %102)
  store i64 %103, ptr %12, align 8, !tbaa !9
  %104 = load ptr, ptr %5, align 8, !tbaa !3
  %105 = call ptr @PACKET_data(ptr noundef %104)
  store ptr %105, ptr %10, align 8, !tbaa !168
  %106 = load ptr, ptr %7, align 8, !tbaa !181
  %107 = getelementptr inbounds [32 x i8], ptr %9, i64 0, i64 0
  %108 = load ptr, ptr %10, align 8, !tbaa !168
  %109 = load i64, ptr %12, align 8, !tbaa !9
  %110 = call i32 @EVP_PKEY_decrypt(ptr noundef %106, ptr noundef %107, ptr noundef %11, ptr noundef %108, i64 noundef %109)
  %111 = icmp sle i32 %110, 0
  br i1 %111, label %112, label %114

112:                                              ; preds = %101
  call void @ERR_new()
  call void @ERR_set_debug(ptr noundef @.str.1, i32 noundef 3364, ptr noundef @__func__.tls_process_cke_gost18)
  %113 = load ptr, ptr %4, align 8, !tbaa !11
  call void (ptr, i32, i32, ptr, ...) @ossl_statem_fatal(ptr noundef %113, i32 noundef 50, i32 noundef 147, ptr noundef null)
  br label %122

114:                                              ; preds = %101
  %115 = load ptr, ptr %4, align 8, !tbaa !11
  %116 = getelementptr inbounds [32 x i8], ptr %9, i64 0, i64 0
  %117 = load i64, ptr %11, align 8, !tbaa !9
  %118 = call i32 @ssl_generate_master_secret(ptr noundef %115, ptr noundef %116, i64 noundef %117, i32 noundef 0)
  %119 = icmp ne i32 %118, 0
  br i1 %119, label %121, label %120

120:                                              ; preds = %114
  br label %122

121:                                              ; preds = %114
  store i32 1, ptr %13, align 4, !tbaa !13
  br label %122

122:                                              ; preds = %121, %120, %112, %99, %92, %85, %79, %66, %32
  %123 = load ptr, ptr %7, align 8, !tbaa !181
  call void @EVP_PKEY_CTX_free(ptr noundef %123)
  %124 = load i32, ptr %13, align 4, !tbaa !13
  store i32 %124, ptr %3, align 4
  store i32 1, ptr %16, align 4
  br label %125

125:                                              ; preds = %122, %25
  call void @llvm.lifetime.end.p0(i64 8, ptr %15) #9
  call void @llvm.lifetime.end.p0(i64 4, ptr %14) #9
  call void @llvm.lifetime.end.p0(i64 4, ptr %13) #9
  call void @llvm.lifetime.end.p0(i64 8, ptr %12) #9
  call void @llvm.lifetime.end.p0(i64 8, ptr %11) #9
  call void @llvm.lifetime.end.p0(i64 8, ptr %10) #9
  call void @llvm.lifetime.end.p0(i64 32, ptr %9) #9
  call void @llvm.lifetime.end.p0(i64 8, ptr %8) #9
  call void @llvm.lifetime.end.p0(i64 8, ptr %7) #9
  call void @llvm.lifetime.end.p0(i64 32, ptr %6) #9
  %126 = load i32, ptr %3, align 4
  ret i32 %126
}