; Function Attrs: nounwind uwtable
define internal fastcc range(i32 0, 2) i32 @tls_process_cke_gost18(ptr noundef %0, ptr noundef readonly captures(none) %1) unnamed_addr #1 {
  %3 = alloca [32 x i8], align 16
  %4 = alloca [32 x i8], align 16
  %5 = alloca i64, align 8
  call void @llvm.lifetime.start.p0(i64 32, ptr nonnull %3) #12
  call void @llvm.lifetime.start.p0(i64 32, ptr nonnull %4) #12
  call void @llvm.lifetime.start.p0(i64 8, ptr nonnull %5) #12
  store i64 32, ptr %5, align 8, !tbaa !101
  %6 = tail call i32 @ossl_gost18_cke_cipher_nid(ptr noundef %0) #12
  %7 = getelementptr inbounds nuw i8, ptr %0, i64 8
  %8 = load ptr, ptr %7, align 8, !tbaa !136
  %9 = icmp eq i32 %6, 0
  br i1 %9, label %10, label %11

10:                                               ; preds = %2
  tail call void @ERR_new() #12
  tail call void @ERR_set_debug(ptr noundef nonnull @.str.1, i32 noundef 3320, ptr noundef nonnull @__func__.tls_process_cke_gost18) #12
  tail call void (ptr, i32, i32, ptr, ...) @ossl_statem_fatal(ptr noundef nonnull %0, i32 noundef 80, i32 noundef 786691, ptr noundef null) #12
  br label %55

11:                                               ; preds = %2
  %12 = call i32 @ossl_gost_ukm(ptr noundef nonnull %0, ptr noundef nonnull %3) #12
  %13 = icmp slt i32 %12, 1
  br i1 %13, label %14, label %15

14:                                               ; preds = %11
  call void @ERR_new() #12
  call void @ERR_set_debug(ptr noundef nonnull @.str.1, i32 noundef 3325, ptr noundef nonnull @__func__.tls_process_cke_gost18) #12
  call void (ptr, i32, i32, ptr, ...) @ossl_statem_fatal(ptr noundef nonnull %0, i32 noundef 80, i32 noundef 786691, ptr noundef null) #12
  br label %54

15:                                               ; preds = %11
  %16 = getelementptr inbounds nuw i8, ptr %0, i64 2176
  %17 = load ptr, ptr %16, align 8, !tbaa !117
  %18 = getelementptr inbounds nuw i8, ptr %17, i64 32
  %19 = load ptr, ptr %18, align 8, !tbaa !239
  %20 = getelementptr inbounds nuw i8, ptr %19, i64 248
  %21 = load ptr, ptr %20, align 8, !tbaa !178
  %.not = icmp eq ptr %21, null
  br i1 %.not, label %22, label %.thread

22:                                               ; preds = %15
  %23 = getelementptr inbounds nuw i8, ptr %19, i64 208
  %24 = load ptr, ptr %23, align 8, !tbaa !178
  %25 = icmp eq ptr %24, null
  br i1 %25, label %26, label %.thread

26:                                               ; preds = %22
  call void @ERR_new() #12
  call void @ERR_set_debug(ptr noundef nonnull @.str.1, i32 noundef 3334, ptr noundef nonnull @__func__.tls_process_cke_gost18) #12
  call void (ptr, i32, i32, ptr, ...) @ossl_statem_fatal(ptr noundef nonnull %0, i32 noundef 80, i32 noundef 236, ptr noundef null) #12
  br label %54

.thread:                                          ; preds = %15, %22
  %27 = phi ptr [ %24, %22 ], [ %21, %15 ]
  %28 = load ptr, ptr %8, align 8, !tbaa !183
  %29 = getelementptr inbounds nuw i8, ptr %8, i64 1152
  %30 = load ptr, ptr %29, align 8, !tbaa !184
  %31 = call ptr @EVP_PKEY_CTX_new_from_pkey(ptr noundef %28, ptr noundef nonnull %27, ptr noundef %30) #12
  %32 = icmp eq ptr %31, null
  br i1 %32, label %33, label %34

33:                                               ; preds = %.thread
  call void @ERR_new() #12
  call void @ERR_set_debug(ptr noundef nonnull @.str.1, i32 noundef 3340, ptr noundef nonnull @__func__.tls_process_cke_gost18) #12
  call void (ptr, i32, i32, ptr, ...) @ossl_statem_fatal(ptr noundef nonnull %0, i32 noundef 80, i32 noundef 524294, ptr noundef null) #12
  br label %54

34:                                               ; preds = %.thread
  %35 = call i32 @EVP_PKEY_decrypt_init(ptr noundef nonnull %31) #12
  %36 = icmp slt i32 %35, 1
  br i1 %36, label %37, label %38

37:                                               ; preds = %34
  call void @ERR_new() #12
  call void @ERR_set_debug(ptr noundef nonnull @.str.1, i32 noundef 3344, ptr noundef nonnull @__func__.tls_process_cke_gost18) #12
  call void (ptr, i32, i32, ptr, ...) @ossl_statem_fatal(ptr noundef nonnull %0, i32 noundef 80, i32 noundef 786691, ptr noundef null) #12
  br label %54

38:                                               ; preds = %34
  %39 = call i32 @EVP_PKEY_CTX_ctrl(ptr noundef nonnull %31, i32 noundef -1, i32 noundef 1024, i32 noundef 8, i32 noundef 32, ptr noundef nonnull %3) #12
  %40 = icmp slt i32 %39, 1
  br i1 %40, label %41, label %42

41:                                               ; preds = %38
  call void @ERR_new() #12
  call void @ERR_set_debug(ptr noundef nonnull @.str.1, i32 noundef 3351, ptr noundef nonnull @__func__.tls_process_cke_gost18) #12
  call void (ptr, i32, i32, ptr, ...) @ossl_statem_fatal(ptr noundef nonnull %0, i32 noundef 80, i32 noundef 274, ptr noundef null) #12
  br label %54

42:                                               ; preds = %38
  %43 = call i32 @EVP_PKEY_CTX_ctrl(ptr noundef nonnull %31, i32 noundef -1, i32 noundef 1024, i32 noundef 12, i32 noundef %6, ptr noundef null) #12
  %44 = icmp slt i32 %43, 1
  br i1 %44, label %45, label %46

45:                                               ; preds = %42
  call void @ERR_new() #12
  call void @ERR_set_debug(ptr noundef nonnull @.str.1, i32 noundef 3357, ptr noundef nonnull @__func__.tls_process_cke_gost18) #12
  call void (ptr, i32, i32, ptr, ...) @ossl_statem_fatal(ptr noundef nonnull %0, i32 noundef 80, i32 noundef 274, ptr noundef null) #12
  br label %54

46:                                               ; preds = %42
  %47 = getelementptr i8, ptr %1, i64 8
  %.val = load i64, ptr %47, align 8, !tbaa !220
  %.val39 = load ptr, ptr %1, align 8, !tbaa !221
  %48 = call i32 @EVP_PKEY_decrypt(ptr noundef nonnull %31, ptr noundef nonnull %4, ptr noundef nonnull %5, ptr noundef %.val39, i64 noundef %.val) #12
  %49 = icmp slt i32 %48, 1
  br i1 %49, label %50, label %51

50:                                               ; preds = %46
  call void @ERR_new() #12
  call void @ERR_set_debug(ptr noundef nonnull @.str.1, i32 noundef 3364, ptr noundef nonnull @__func__.tls_process_cke_gost18) #12
  call void (ptr, i32, i32, ptr, ...) @ossl_statem_fatal(ptr noundef nonnull %0, i32 noundef 50, i32 noundef 147, ptr noundef null) #12
  br label %54

51:                                               ; preds = %46
  %52 = load i64, ptr %5, align 8, !tbaa !101
  %53 = call i32 @ssl_generate_master_secret(ptr noundef nonnull %0, ptr noundef nonnull %4, i64 noundef %52, i32 noundef 0) #12
  %.not38 = icmp ne i32 %53, 0
  %spec.select = zext i1 %.not38 to i32
  br label %54

54:                                               ; preds = %51, %50, %45, %41, %37, %33, %26, %14
  %.033 = phi i32 [ 0, %14 ], [ 0, %26 ], [ 0, %33 ], [ 0, %37 ], [ 0, %41 ], [ 0, %45 ], [ 0, %50 ], [ %spec.select, %51 ]
  %.032 = phi ptr [ null, %14 ], [ null, %26 ], [ null, %33 ], [ %31, %37 ], [ %31, %41 ], [ %31, %45 ], [ %31, %50 ], [ %31, %51 ]
  call void @EVP_PKEY_CTX_free(ptr noundef %.032) #12
  br label %55

55:                                               ; preds = %54, %10
  %.0 = phi i32 [ 0, %10 ], [ %.033, %54 ]
  call void @llvm.lifetime.end.p0(i64 8, ptr nonnull %5) #12
  call void @llvm.lifetime.end.p0(i64 32, ptr nonnull %4) #12
  call void @llvm.lifetime.end.p0(i64 32, ptr nonnull %3) #12
  ret i32 %.0
}